(dp1
S'1'
(dp2
S'elems'
p3
(lp4
S'305'
p5
aS'401'
p6
aS'112'
p7
asS'sets'
p8
c__builtin__
frozenset
p9
((lp10
S'Bob'
p11
atRp12
ssS'0'
(dp13
g3
(lp14
S'245'
p15
aS'111'
p16
asg8
g9
((lp17
S'Alice'
p18
atRp19
ssS'2'
(dp20
g3
(lp21
S'201'
p22
aS'300'
p23
aS'101'
p24
asg8
g9
((lp25
g11
ag18
atRp26
ss.