(dp1
S'201'
p2
c__builtin__
frozenset
p3
((lp4
S'Bob'
p5
aS'Alice'
p6
atRp7
sS'300'
p8
g3
((lp9
g5
ag6
atRp10
sS'305'
p11
g3
((lp12
g5
atRp13
sS'245'
p14
g3
((lp15
g6
atRp16
sS'111'
p17
g3
((lp18
g6
atRp19
sS'401'
p20
g3
((lp21
g5
atRp22
sS'112'
p23
g3
((lp24
g5
atRp25
sS'101'
p26
g3
((lp27
g5
ag6
atRp28
s.